; Function Attrs: nounwind uwtable
define noalias noundef ptr @Gia_ManBfsForCrossCut(ptr noundef %0) local_unnamed_addr #2 {
  %2 = getelementptr i8, ptr %0, i64 24
  %.val20 = load i32, ptr %2, align 8
  %3 = tail call noalias dereferenceable_or_null(16) ptr @malloc(i64 noundef 16) #40
  %4 = add i32 %.val20, -1
  %or.cond.i = icmp ult i32 %4, 15
  %spec.store.select.i = select i1 %or.cond.i, i32 16, i32 %.val20
  %5 = getelementptr inbounds nuw i8, ptr %3, i64 4
  store i32 0, ptr %5, align 4
  store i32 %spec.store.select.i, ptr %3, align 8
  %.not.i = icmp eq i32 %spec.store.select.i, 0
  br i1 %.not.i, label %Vec_IntAlloc.exit, label %6

6:                                                ; preds = %1
  %7 = sext i32 %spec.store.select.i to i64
  %8 = shl nsw i64 %7, 2
  %9 = tail call noalias ptr @malloc(i64 noundef %8) #40
  br label %Vec_IntAlloc.exit

Vec_IntAlloc.exit:                                ; preds = %1, %6
  %10 = phi ptr [ %9, %6 ], [ null, %1 ]
  %11 = getelementptr inbounds nuw i8, ptr %3, i64 8
  store ptr %10, ptr %11, align 8
  %12 = tail call ptr @Gia_ManLevelize(ptr noundef nonnull %0) #36
  %13 = getelementptr i8, ptr %12, i64 4
  %.val2227 = load i32, ptr %13, align 4
  %14 = icmp sgt i32 %.val2227, 0
  br i1 %14, label %.lr.ph29, label %.critedge.i

.lr.ph29:                                         ; preds = %Vec_IntAlloc.exit
  %15 = getelementptr i8, ptr %12, i64 8
  %16 = getelementptr i8, ptr %0, i64 32
  br label %17

17:                                               ; preds = %.lr.ph29, %.critedge2
  %.val2235 = phi i32 [ %.val2227, %.lr.ph29 ], [ %.val22, %.critedge2 ]
  %indvars.iv32 = phi i64 [ 0, %.lr.ph29 ], [ %indvars.iv.next33, %.critedge2 ]
  %.val23 = load ptr, ptr %15, align 8
  %18 = getelementptr inbounds nuw ptr, ptr %.val23, i64 %indvars.iv32
  %19 = load ptr, ptr %18, align 8
  %20 = getelementptr i8, ptr %19, i64 4
  %.val25 = load i32, ptr %20, align 4
  %21 = icmp sgt i32 %.val25, 0
  br i1 %21, label %.lr.ph, label %.critedge2

.lr.ph:                                           ; preds = %17
  %22 = getelementptr i8, ptr %19, i64 8
  br label %23

23:                                               ; preds = %.lr.ph, %Vec_IntPush.exit
  %indvars.iv = phi i64 [ 0, %.lr.ph ], [ %indvars.iv.next, %Vec_IntPush.exit ]
  %.val19 = load ptr, ptr %22, align 8
  %24 = getelementptr inbounds nuw ptr, ptr %.val19, i64 %indvars.iv
  %25 = load ptr, ptr %24, align 8
  %.val21 = load ptr, ptr %16, align 8
  %26 = ptrtoint ptr %25 to i64
  %27 = ptrtoint ptr %.val21 to i64
  %28 = sub i64 %26, %27
  %29 = sdiv exact i64 %28, 12
  %30 = trunc i64 %29 to i32
  %31 = load i32, ptr %5, align 4
  %32 = load i32, ptr %3, align 8
  %33 = icmp eq i32 %31, %32
  br i1 %33, label %34, label %.Vec_IntGrow.exit10_crit_edge.i

.Vec_IntGrow.exit10_crit_edge.i:                  ; preds = %23
  %.pre.i = load ptr, ptr %11, align 8
  br label %Vec_IntPush.exit

34:                                               ; preds = %23
  %35 = icmp slt i32 %31, 16
  br i1 %35, label %36, label %43

36:                                               ; preds = %34
  %37 = load ptr, ptr %11, align 8
  %.not9.i.i = icmp eq ptr %37, null
  br i1 %.not9.i.i, label %40, label %38

38:                                               ; preds = %36
  %39 = tail call dereferenceable_or_null(64) ptr @realloc(ptr noundef nonnull %37, i64 noundef 64) #39
  br label %Vec_IntGrow.exit.i

40:                                               ; preds = %36
  %41 = tail call noalias dereferenceable_or_null(64) ptr @malloc(i64 noundef 64) #40
  br label %Vec_IntGrow.exit.i

Vec_IntGrow.exit.i:                               ; preds = %40, %38
  %42 = phi ptr [ %39, %38 ], [ %41, %40 ]
  store ptr %42, ptr %11, align 8
  store i32 16, ptr %3, align 8
  br label %Vec_IntPush.exit

43:                                               ; preds = %34
  %44 = shl nuw nsw i32 %31, 1
  %45 = load ptr, ptr %11, align 8
  %.not9.i9.i = icmp eq ptr %45, null
  %46 = zext nneg i32 %44 to i64
  %47 = shl nuw nsw i64 %46, 2
  br i1 %.not9.i9.i, label %50, label %48

48:                                               ; preds = %43
  %49 = tail call ptr @realloc(ptr noundef nonnull %45, i64 noundef %47) #39
  br label %52

50:                                               ; preds = %43
  %51 = tail call noalias ptr @malloc(i64 noundef %47) #40
  br label %52

52:                                               ; preds = %50, %48
  %53 = phi ptr [ %49, %48 ], [ %51, %50 ]
  store ptr %53, ptr %11, align 8
  store i32 %44, ptr %3, align 8
  br label %Vec_IntPush.exit

Vec_IntPush.exit:                                 ; preds = %.Vec_IntGrow.exit10_crit_edge.i, %Vec_IntGrow.exit.i, %52
  %54 = phi ptr [ %.pre.i, %.Vec_IntGrow.exit10_crit_edge.i ], [ %53, %52 ], [ %42, %Vec_IntGrow.exit.i ]
  %55 = add nsw i32 %31, 1
  store i32 %55, ptr %5, align 4
  %56 = sext i32 %31 to i64
  %57 = getelementptr inbounds i32, ptr %54, i64 %56
  store i32 %30, ptr %57, align 4
  %indvars.iv.next = add nuw nsw i64 %indvars.iv, 1
  %.val = load i32, ptr %20, align 4
  %58 = sext i32 %.val to i64
  %59 = icmp slt i64 %indvars.iv.next, %58
  br i1 %59, label %23, label %.critedge2.loopexit, !llvm.loop !35

.critedge2.loopexit:                              ; preds = %Vec_IntPush.exit
  %.val22.pre = load i32, ptr %13, align 4
  br label %.critedge2

.critedge2:                                       ; preds = %.critedge2.loopexit, %17
  %.val22 = phi i32 [ %.val22.pre, %.critedge2.loopexit ], [ %.val2235, %17 ]
  %indvars.iv.next33 = add nuw nsw i64 %indvars.iv32, 1
  %60 = sext i32 %.val22 to i64
  %61 = icmp slt i64 %indvars.iv.next33, %60
  br i1 %61, label %17, label %.critedge, !llvm.loop !36

.critedge:                                        ; preds = %.critedge2
  %62 = icmp sgt i32 %.val22, 0
  br i1 %62, label %.lr.ph.i, label %.critedge.i

.lr.ph.i:                                         ; preds = %.critedge
  %63 = getelementptr i8, ptr %12, i64 8
  br label %64

64:                                               ; preds = %71, %.lr.ph.i
  %.val14.i = phi i32 [ %.val22, %.lr.ph.i ], [ %.val.i, %71 ]
  %indvars.iv.i = phi i64 [ 0, %.lr.ph.i ], [ %indvars.iv.next.i, %71 ]
  %.val8.i = load ptr, ptr %63, align 8
  %65 = getelementptr inbounds nuw ptr, ptr %.val8.i, i64 %indvars.iv.i
  %66 = load ptr, ptr %65, align 8
  %.not.i24 = icmp eq ptr %66, null
  br i1 %.not.i24, label %71, label %67

67:                                               ; preds = %64
  %68 = getelementptr inbounds nuw i8, ptr %66, i64 8
  %69 = load ptr, ptr %68, align 8
  %.not.i.i = icmp eq ptr %69, null
  br i1 %.not.i.i, label %Vec_PtrFree.exit.i, label %70

70:                                               ; preds = %67
  tail call void @free(ptr noundef nonnull %69) #36
  br label %Vec_PtrFree.exit.i

Vec_PtrFree.exit.i:                               ; preds = %70, %67
  tail call void @free(ptr noundef nonnull %66) #36
  %.val.pre.i = load i32, ptr %13, align 4
  br label %71

71:                                               ; preds = %Vec_PtrFree.exit.i, %64
  %.val.i = phi i32 [ %.val14.i, %64 ], [ %.val.pre.i, %Vec_PtrFree.exit.i ]
  %indvars.iv.next.i = add nuw nsw i64 %indvars.iv.i, 1
  %72 = sext i32 %.val.i to i64
  %73 = icmp slt i64 %indvars.iv.next.i, %72
  br i1 %73, label %64, label %.critedge.i, !llvm.loop !37

.critedge.i:                                      ; preds = %71, %Vec_IntAlloc.exit, %.critedge
  %74 = getelementptr inbounds nuw i8, ptr %12, i64 8
  %75 = load ptr, ptr %74, align 8
  %.not.i9.i = icmp eq ptr %75, null
  br i1 %.not.i9.i, label %Vec_VecFree.exit, label %76

76:                                               ; preds = %.critedge.i
  tail call void @free(ptr noundef nonnull %75) #36
  br label %Vec_VecFree.exit

Vec_VecFree.exit:                                 ; preds = %.critedge.i, %76
  tail call void @free(ptr noundef nonnull %12) #36
  ret ptr %3
}